target datalayout = "e-m:e-p270:32:32-p271:32:32-p272:64:64-i64:64-i128:128-f80:128-n8:16:32:64-S128"
target triple = "x86_64-pc-linux-gnu"

%struct.pkcs7_st = type { ptr, i64, i32, i32, ptr, %union.anon, %struct.PKCS7_CTX_st }
%union.anon = type { ptr }
%struct.PKCS7_CTX_st = type { ptr, ptr }
%struct.pkcs7_signed_st = type { ptr, ptr, ptr, ptr, ptr, ptr }
%struct.pkcs7_signedandenveloped_st = type { ptr, ptr, ptr, ptr, ptr, ptr, ptr }
%struct.pkcs7_enveloped_st = type { ptr, ptr, ptr }
%struct.pkcs7_signer_info_st = type { ptr, ptr, ptr, ptr, ptr, ptr, ptr, ptr, ptr }
%struct.pkcs7_recip_info_st = type { ptr, ptr, ptr, ptr, ptr, ptr }

; Function Attrs: inlinehint nounwind uwtable
define internal ptr @ossl_check_const_PKCS7_SIGNER_INFO_sk_type(ptr noundef %0) #3 {
  %2 = alloca ptr, align 8
  store ptr %0, ptr %2, align 8, !tbaa !55
  %3 = load ptr, ptr %2, align 8, !tbaa !55
  ret ptr %3
}

; Function Attrs: inlinehint nounwind uwtable
define internal ptr @ossl_check_const_PKCS7_RECIP_INFO_sk_type(ptr noundef %0) #3 {
  %2 = alloca ptr, align 8
  store ptr %0, ptr %2, align 8, !tbaa !108
  %3 = load ptr, ptr %2, align 8, !tbaa !108
  ret ptr %3
}

; Function Attrs: inlinehint nounwind uwtable
define internal ptr @ossl_check_const_X509_sk_type(ptr noundef %0) #3 {
  %2 = alloca ptr, align 8
  store ptr %0, ptr %2, align 8, !tbaa !109
  %3 = load ptr, ptr %2, align 8, !tbaa !109
  ret ptr %3
}

; Function Attrs: nounwind uwtable
define ptr @pkcs7_get0_certificates(ptr noundef %0) #0 {
  %2 = alloca ptr, align 8
  %3 = alloca ptr, align 8
  store ptr %0, ptr %3, align 8, !tbaa !3
  %4 = load ptr, ptr %3, align 8, !tbaa !3
  %5 = getelementptr inbounds nuw %struct.pkcs7_st, ptr %4, i32 0, i32 5
  %6 = load ptr, ptr %5, align 8, !tbaa !19
  %7 = icmp eq ptr %6, null
  br i1 %7, label %8, label %9

8:                                                ; preds = %1
  store ptr null, ptr %2, align 8
  br label %34

9:                                                ; preds = %1
  %10 = load ptr, ptr %3, align 8, !tbaa !3
  %11 = getelementptr inbounds nuw %struct.pkcs7_st, ptr %10, i32 0, i32 4
  %12 = load ptr, ptr %11, align 8, !tbaa !14
  %13 = call i32 @OBJ_obj2nid(ptr noundef %12)
  %14 = icmp eq i32 %13, 22
  br i1 %14, label %15, label %21

15:                                               ; preds = %9
  %16 = load ptr, ptr %3, align 8, !tbaa !3
  %17 = getelementptr inbounds nuw %struct.pkcs7_st, ptr %16, i32 0, i32 5
  %18 = load ptr, ptr %17, align 8, !tbaa !19
  %19 = getelementptr inbounds nuw %struct.pkcs7_signed_st, ptr %18, i32 0, i32 2
  %20 = load ptr, ptr %19, align 8, !tbaa !104
  store ptr %20, ptr %2, align 8
  br label %34

21:                                               ; preds = %9
  %22 = load ptr, ptr %3, align 8, !tbaa !3
  %23 = getelementptr inbounds nuw %struct.pkcs7_st, ptr %22, i32 0, i32 4
  %24 = load ptr, ptr %23, align 8, !tbaa !14
  %25 = call i32 @OBJ_obj2nid(ptr noundef %24)
  %26 = icmp eq i32 %25, 24
  br i1 %26, label %27, label %33

27:                                               ; preds = %21
  %28 = load ptr, ptr %3, align 8, !tbaa !3
  %29 = getelementptr inbounds nuw %struct.pkcs7_st, ptr %28, i32 0, i32 5
  %30 = load ptr, ptr %29, align 8, !tbaa !19
  %31 = getelementptr inbounds nuw %struct.pkcs7_signedandenveloped_st, ptr %30, i32 0, i32 2
  %32 = load ptr, ptr %31, align 8, !tbaa !105
  store ptr %32, ptr %2, align 8
  br label %34

33:                                               ; preds = %21
  store ptr null, ptr %2, align 8
  br label %34

34:                                               ; preds = %33, %27, %15, %8
  %35 = load ptr, ptr %2, align 8
  ret ptr %35
}

; Function Attrs: nounwind uwtable
define ptr @PKCS7_get_signer_info(ptr noundef %0) #0 {
  %2 = alloca ptr, align 8
  %3 = alloca ptr, align 8
  store ptr %0, ptr %3, align 8, !tbaa !3
  %4 = load ptr, ptr %3, align 8, !tbaa !3
  %5 = icmp eq ptr %4, null
  br i1 %5, label %11, label %6

6:                                                ; preds = %1
  %7 = load ptr, ptr %3, align 8, !tbaa !3
  %8 = getelementptr inbounds nuw %struct.pkcs7_st, ptr %7, i32 0, i32 5
  %9 = load ptr, ptr %8, align 8, !tbaa !19
  %10 = icmp eq ptr %9, null
  br i1 %10, label %11, label %12

11:                                               ; preds = %6, %1
  store ptr null, ptr %2, align 8
  br label %37

12:                                               ; preds = %6
  %13 = load ptr, ptr %3, align 8, !tbaa !3
  %14 = getelementptr inbounds nuw %struct.pkcs7_st, ptr %13, i32 0, i32 4
  %15 = load ptr, ptr %14, align 8, !tbaa !14
  %16 = call i32 @OBJ_obj2nid(ptr noundef %15)
  %17 = icmp eq i32 %16, 22
  br i1 %17, label %18, label %24

18:                                               ; preds = %12
  %19 = load ptr, ptr %3, align 8, !tbaa !3
  %20 = getelementptr inbounds nuw %struct.pkcs7_st, ptr %19, i32 0, i32 5
  %21 = load ptr, ptr %20, align 8, !tbaa !19
  %22 = getelementptr inbounds nuw %struct.pkcs7_signed_st, ptr %21, i32 0, i32 4
  %23 = load ptr, ptr %22, align 8, !tbaa !54
  store ptr %23, ptr %2, align 8
  br label %37

24:                                               ; preds = %12
  %25 = load ptr, ptr %3, align 8, !tbaa !3
  %26 = getelementptr inbounds nuw %struct.pkcs7_st, ptr %25, i32 0, i32 4
  %27 = load ptr, ptr %26, align 8, !tbaa !14
  %28 = call i32 @OBJ_obj2nid(ptr noundef %27)
  %29 = icmp eq i32 %28, 24
  br i1 %29, label %30, label %36

30:                                               ; preds = %24
  %31 = load ptr, ptr %3, align 8, !tbaa !3
  %32 = getelementptr inbounds nuw %struct.pkcs7_st, ptr %31, i32 0, i32 5
  %33 = load ptr, ptr %32, align 8, !tbaa !19
  %34 = getelementptr inbounds nuw %struct.pkcs7_signedandenveloped_st, ptr %33, i32 0, i32 4
  %35 = load ptr, ptr %34, align 8, !tbaa !58
  store ptr %35, ptr %2, align 8
  br label %37

36:                                               ; preds = %24
  store ptr null, ptr %2, align 8
  br label %37

37:                                               ; preds = %36, %30, %18, %11
  %38 = load ptr, ptr %2, align 8
  ret ptr %38
}

; Function Attrs: nounwind uwtable
define internal ptr @pkcs7_get_recipient_info(ptr noundef %0) #0 {
  %2 = alloca ptr, align 8
  %3 = alloca ptr, align 8
  store ptr %0, ptr %3, align 8, !tbaa !3
  %4 = load ptr, ptr %3, align 8, !tbaa !3
  %5 = getelementptr inbounds nuw %struct.pkcs7_st, ptr %4, i32 0, i32 5
  %6 = load ptr, ptr %5, align 8, !tbaa !19
  %7 = icmp eq ptr %6, null
  br i1 %7, label %8, label %9

8:                                                ; preds = %1
  store ptr null, ptr %2, align 8
  br label %34

9:                                                ; preds = %1
  %10 = load ptr, ptr %3, align 8, !tbaa !3
  %11 = getelementptr inbounds nuw %struct.pkcs7_st, ptr %10, i32 0, i32 4
  %12 = load ptr, ptr %11, align 8, !tbaa !14
  %13 = call i32 @OBJ_obj2nid(ptr noundef %12)
  %14 = icmp eq i32 %13, 24
  br i1 %14, label %15, label %21

15:                                               ; preds = %9
  %16 = load ptr, ptr %3, align 8, !tbaa !3
  %17 = getelementptr inbounds nuw %struct.pkcs7_st, ptr %16, i32 0, i32 5
  %18 = load ptr, ptr %17, align 8, !tbaa !19
  %19 = getelementptr inbounds nuw %struct.pkcs7_signedandenveloped_st, ptr %18, i32 0, i32 6
  %20 = load ptr, ptr %19, align 8, !tbaa !119
  store ptr %20, ptr %2, align 8
  br label %34

21:                                               ; preds = %9
  %22 = load ptr, ptr %3, align 8, !tbaa !3
  %23 = getelementptr inbounds nuw %struct.pkcs7_st, ptr %22, i32 0, i32 4
  %24 = load ptr, ptr %23, align 8, !tbaa !14
  %25 = call i32 @OBJ_obj2nid(ptr noundef %24)
  %26 = icmp eq i32 %25, 23
  br i1 %26, label %27, label %33

27:                                               ; preds = %21
  %28 = load ptr, ptr %3, align 8, !tbaa !3
  %29 = getelementptr inbounds nuw %struct.pkcs7_st, ptr %28, i32 0, i32 5
  %30 = load ptr, ptr %29, align 8, !tbaa !19
  %31 = getelementptr inbounds nuw %struct.pkcs7_enveloped_st, ptr %30, i32 0, i32 1
  %32 = load ptr, ptr %31, align 8, !tbaa !120
  store ptr %32, ptr %2, align 8
  br label %34

33:                                               ; preds = %21
  store ptr null, ptr %2, align 8
  br label %34

34:                                               ; preds = %33, %27, %15, %8
  %35 = load ptr, ptr %2, align 8
  ret ptr %35
}

; Function Attrs: nounwind uwtable
define ptr @ossl_pkcs7_ctx_get0_propq(ptr noundef %0) #0 {
  %2 = alloca ptr, align 8
  store ptr %0, ptr %2, align 8, !tbaa !106
  %3 = load ptr, ptr %2, align 8, !tbaa !106
  %4 = icmp ne ptr %3, null
  br i1 %4, label %5, label %9

5:                                                ; preds = %1
  %6 = load ptr, ptr %2, align 8, !tbaa !106
  %7 = getelementptr inbounds nuw %struct.PKCS7_CTX_st, ptr %6, i32 0, i32 1
  %8 = load ptr, ptr %7, align 8, !tbaa !118
  br label %10

9:                                                ; preds = %1
  br label %10

10:                                               ; preds = %9, %5
  %11 = phi ptr [ %8, %5 ], [ null, %9 ]
  ret ptr %11
}

; Function Attrs: nounwind uwtable
define ptr @ossl_pkcs7_ctx_get0_libctx(ptr noundef %0) #0 {
  %2 = alloca ptr, align 8
  store ptr %0, ptr %2, align 8, !tbaa !106
  %3 = load ptr, ptr %2, align 8, !tbaa !106
  %4 = icmp ne ptr %3, null
  br i1 %4, label %5, label %9

5:                                                ; preds = %1
  %6 = load ptr, ptr %2, align 8, !tbaa !106
  %7 = getelementptr inbounds nuw %struct.PKCS7_CTX_st, ptr %6, i32 0, i32 0
  %8 = load ptr, ptr %7, align 8, !tbaa !117
  br label %10

9:                                                ; preds = %1
  br label %10

10:                                               ; preds = %9, %5
  %11 = phi ptr [ %8, %5 ], [ null, %9 ]
  ret ptr %11
}

; Function Attrs: nounwind uwtable
define ptr @ossl_pkcs7_get0_ctx(ptr noundef %0) #0 {
  %2 = alloca ptr, align 8
  store ptr %0, ptr %2, align 8, !tbaa !3
  %3 = load ptr, ptr %2, align 8, !tbaa !3
  %4 = icmp ne ptr %3, null
  br i1 %4, label %5, label %8

5:                                                ; preds = %1
  %6 = load ptr, ptr %2, align 8, !tbaa !3
  %7 = getelementptr inbounds nuw %struct.pkcs7_st, ptr %6, i32 0, i32 6
  br label %9

8:                                                ; preds = %1
  br label %9

9:                                                ; preds = %8, %5
  %10 = phi ptr [ %7, %5 ], [ null, %8 ]
  ret ptr %10
}

; Function Attrs: nounwind uwtable
define void @ossl_pkcs7_resolve_libctx(ptr noundef %0) #0 {
  %2 = alloca ptr, align 8
  %3 = alloca i32, align 4
  %4 = alloca ptr, align 8
  %5 = alloca ptr, align 8
  %6 = alloca ptr, align 8
  %7 = alloca ptr, align 8
  %8 = alloca ptr, align 8
  %9 = alloca ptr, align 8
  %10 = alloca i32, align 4
  %11 = alloca ptr, align 8
  %12 = alloca ptr, align 8
  store ptr %0, ptr %2, align 8, !tbaa !3
  call void @llvm.lifetime.start.p0(i64 4, ptr %3) #4
  call void @llvm.lifetime.start.p0(i64 8, ptr %4) #4
  %13 = load ptr, ptr %2, align 8, !tbaa !3
  %14 = call ptr @ossl_pkcs7_get0_ctx(ptr noundef %13)
  store ptr %14, ptr %4, align 8, !tbaa !106
  call void @llvm.lifetime.start.p0(i64 8, ptr %5) #4
  %15 = load ptr, ptr %4, align 8, !tbaa !106
  %16 = call ptr @ossl_pkcs7_ctx_get0_libctx(ptr noundef %15)
  store ptr %16, ptr %5, align 8, !tbaa !107
  call void @llvm.lifetime.start.p0(i64 8, ptr %6) #4
  %17 = load ptr, ptr %4, align 8, !tbaa !106
  %18 = call ptr @ossl_pkcs7_ctx_get0_propq(ptr noundef %17)
  store ptr %18, ptr %6, align 8, !tbaa !12
  call void @llvm.lifetime.start.p0(i64 8, ptr %7) #4
  call void @llvm.lifetime.start.p0(i64 8, ptr %8) #4
  call void @llvm.lifetime.start.p0(i64 8, ptr %9) #4
  %19 = load ptr, ptr %4, align 8, !tbaa !106
  %20 = icmp eq ptr %19, null
  br i1 %20, label %26, label %21

21:                                               ; preds = %1
  %22 = load ptr, ptr %2, align 8, !tbaa !3
  %23 = getelementptr inbounds nuw %struct.pkcs7_st, ptr %22, i32 0, i32 5
  %24 = load ptr, ptr %23, align 8, !tbaa !19
  %25 = icmp eq ptr %24, null
  br i1 %25, label %26, label %27

26:                                               ; preds = %21, %1
  store i32 1, ptr %10, align 4
  br label %95

27:                                               ; preds = %21
  %28 = load ptr, ptr %2, align 8, !tbaa !3
  %29 = call ptr @pkcs7_get_recipient_info(ptr noundef %28)
  store ptr %29, ptr %7, align 8, !tbaa !108
  %30 = load ptr, ptr %2, align 8, !tbaa !3
  %31 = call ptr @PKCS7_get_signer_info(ptr noundef %30)
  store ptr %31, ptr %8, align 8, !tbaa !55
  %32 = load ptr, ptr %2, align 8, !tbaa !3
  %33 = call ptr @pkcs7_get0_certificates(ptr noundef %32)
  store ptr %33, ptr %9, align 8, !tbaa !109
  store i32 0, ptr %3, align 4, !tbaa !8
  br label %34

34:                                               ; preds = %48, %27
  %35 = load i32, ptr %3, align 4, !tbaa !8
  %36 = load ptr, ptr %9, align 8, !tbaa !109
  %37 = call ptr @ossl_check_const_X509_sk_type(ptr noundef %36)
  %38 = call i32 @OPENSSL_sk_num(ptr noundef %37)
  %39 = icmp slt i32 %35, %38
  br i1 %39, label %40, label %51

40:                                               ; preds = %34
  %41 = load ptr, ptr %9, align 8, !tbaa !109
  %42 = call ptr @ossl_check_const_X509_sk_type(ptr noundef %41)
  %43 = load i32, ptr %3, align 4, !tbaa !8
  %44 = call ptr @OPENSSL_sk_value(ptr noundef %42, i32 noundef %43)
  %45 = load ptr, ptr %5, align 8, !tbaa !107
  %46 = load ptr, ptr %6, align 8, !tbaa !12
  %47 = call i32 @ossl_x509_set0_libctx(ptr noundef %44, ptr noundef %45, ptr noundef %46)
  br label %48

48:                                               ; preds = %40
  %49 = load i32, ptr %3, align 4, !tbaa !8
  %50 = add nsw i32 %49, 1
  store i32 %50, ptr %3, align 4, !tbaa !8
  br label %34, !llvm.loop !110

51:                                               ; preds = %34
  store i32 0, ptr %3, align 4, !tbaa !8
  br label %52

52:                                               ; preds = %69, %51
  %53 = load i32, ptr %3, align 4, !tbaa !8
  %54 = load ptr, ptr %7, align 8, !tbaa !108
  %55 = call ptr @ossl_check_const_PKCS7_RECIP_INFO_sk_type(ptr noundef %54)
  %56 = call i32 @OPENSSL_sk_num(ptr noundef %55)
  %57 = icmp slt i32 %53, %56
  br i1 %57, label %58, label %72

58:                                               ; preds = %52
  call void @llvm.lifetime.start.p0(i64 8, ptr %11) #4
  %59 = load ptr, ptr %7, align 8, !tbaa !108
  %60 = call ptr @ossl_check_const_PKCS7_RECIP_INFO_sk_type(ptr noundef %59)
  %61 = load i32, ptr %3, align 4, !tbaa !8
  %62 = call ptr @OPENSSL_sk_value(ptr noundef %60, i32 noundef %61)
  store ptr %62, ptr %11, align 8, !tbaa !111
  %63 = load ptr, ptr %11, align 8, !tbaa !111
  %64 = getelementptr inbounds nuw %struct.pkcs7_recip_info_st, ptr %63, i32 0, i32 4
  %65 = load ptr, ptr %64, align 8, !tbaa !113
  %66 = load ptr, ptr %5, align 8, !tbaa !107
  %67 = load ptr, ptr %6, align 8, !tbaa !12
  %68 = call i32 @ossl_x509_set0_libctx(ptr noundef %65, ptr noundef %66, ptr noundef %67)
  call void @llvm.lifetime.end.p0(i64 8, ptr %11) #4
  br label %69

69:                                               ; preds = %58
  %70 = load i32, ptr %3, align 4, !tbaa !8
  %71 = add nsw i32 %70, 1
  store i32 %71, ptr %3, align 4, !tbaa !8
  br label %52, !llvm.loop !115

72:                                               ; preds = %52
  store i32 0, ptr %3, align 4, !tbaa !8
  br label %73

73:                                               ; preds = %91, %72
  %74 = load i32, ptr %3, align 4, !tbaa !8
  %75 = load ptr, ptr %8, align 8, !tbaa !55
  %76 = call ptr @ossl_check_const_PKCS7_SIGNER_INFO_sk_type(ptr noundef %75)
  %77 = call i32 @OPENSSL_sk_num(ptr noundef %76)
  %78 = icmp slt i32 %74, %77
  br i1 %78, label %79, label %94

79:                                               ; preds = %73
  call void @llvm.lifetime.start.p0(i64 8, ptr %12) #4
  %80 = load ptr, ptr %8, align 8, !tbaa !55
  %81 = call ptr @ossl_check_const_PKCS7_SIGNER_INFO_sk_type(ptr noundef %80)
  %82 = load i32, ptr %3, align 4, !tbaa !8
  %83 = call ptr @OPENSSL_sk_value(ptr noundef %81, i32 noundef %82)
  store ptr %83, ptr %12, align 8, !tbaa !52
  %84 = load ptr, ptr %12, align 8, !tbaa !52
  %85 = icmp ne ptr %84, null
  br i1 %85, label %86, label %90

86:                                               ; preds = %79
  %87 = load ptr, ptr %4, align 8, !tbaa !106
  %88 = load ptr, ptr %12, align 8, !tbaa !52
  %89 = getelementptr inbounds nuw %struct.pkcs7_signer_info_st, ptr %88, i32 0, i32 8
  store ptr %87, ptr %89, align 8, !tbaa !73
  br label %90

90:                                               ; preds = %86, %79
  call void @llvm.lifetime.end.p0(i64 8, ptr %12) #4
  br label %91

91:                                               ; preds = %90
  %92 = load i32, ptr %3, align 4, !tbaa !8
  %93 = add nsw i32 %92, 1
  store i32 %93, ptr %3, align 4, !tbaa !8
  br label %73, !llvm.loop !116

94:                                               ; preds = %73
  store i32 0, ptr %10, align 4
  br label %95

95:                                               ; preds = %94, %26
  call void @llvm.lifetime.end.p0(i64 8, ptr %9) #4
  call void @llvm.lifetime.end.p0(i64 8, ptr %8) #4
  call void @llvm.lifetime.end.p0(i64 8, ptr %7) #4
  call void @llvm.lifetime.end.p0(i64 8, ptr %6) #4
  call void @llvm.lifetime.end.p0(i64 8, ptr %5) #4
  call void @llvm.lifetime.end.p0(i64 8, ptr %4) #4
  call void @llvm.lifetime.end.p0(i64 4, ptr %3) #4
  %96 = load i32, ptr %10, align 4
  switch i32 %96, label %98 [
    i32 0, label %97
    i32 1, label %97
  ]

97:                                               ; preds = %95, %95
  ret void

98:                                               ; preds = %95
  unreachable
}