; Function Attrs: nounwind uwtable
define void @ossl_pkcs7_resolve_libctx(ptr noundef %0) local_unnamed_addr #0 {
  %.not.i = icmp eq ptr %0, null
  %2 = getelementptr inbounds nuw i8, ptr %0, i64 40
  %3 = select i1 %.not.i, ptr null, ptr %2
  br i1 %.not.i, label %ossl_pkcs7_ctx_get0_propq.exit.thread, label %4

4:                                                ; preds = %1
  %5 = load ptr, ptr %2, align 8, !tbaa !82
  %6 = getelementptr inbounds nuw i8, ptr %0, i64 48
  %7 = load ptr, ptr %6, align 8, !tbaa !83
  %8 = getelementptr inbounds nuw i8, ptr %0, i64 32
  %9 = load ptr, ptr %8, align 8, !tbaa !14
  %10 = icmp eq ptr %9, null
  br i1 %10, label %ossl_pkcs7_ctx_get0_propq.exit.thread, label %11

11:                                               ; preds = %4
  %12 = getelementptr inbounds nuw i8, ptr %0, i64 24
  %13 = load ptr, ptr %12, align 8, !tbaa !3
  %14 = tail call i32 @OBJ_obj2nid(ptr noundef %13) #7
  %15 = icmp eq i32 %14, 24
  br i1 %15, label %pkcs7_get_recipient_info.exit.thread, label %16

16:                                               ; preds = %11
  %17 = load ptr, ptr %12, align 8, !tbaa !3
  %18 = tail call i32 @OBJ_obj2nid(ptr noundef %17) #7
  %19 = icmp eq i32 %18, 23
  br i1 %19, label %pkcs7_get_recipient_info.exit.thread, label %pkcs7_get_recipient_info.exit

pkcs7_get_recipient_info.exit.thread:             ; preds = %11, %16
  %.sink7.i = phi i64 [ 48, %11 ], [ 8, %16 ]
  %20 = load ptr, ptr %8, align 8, !tbaa !14
  %21 = getelementptr inbounds nuw i8, ptr %20, i64 %.sink7.i
  %22 = load ptr, ptr %21, align 8, !tbaa !84
  br label %24

pkcs7_get_recipient_info.exit:                    ; preds = %16
  %.pr = load ptr, ptr %8, align 8, !tbaa !14
  %23 = icmp eq ptr %.pr, null
  br i1 %23, label %pkcs7_get0_certificates.exit, label %24

24:                                               ; preds = %pkcs7_get_recipient_info.exit.thread, %pkcs7_get_recipient_info.exit
  %.0.i39 = phi ptr [ %22, %pkcs7_get_recipient_info.exit.thread ], [ null, %pkcs7_get_recipient_info.exit ]
  %25 = load ptr, ptr %12, align 8, !tbaa !3
  %26 = tail call i32 @OBJ_obj2nid(ptr noundef %25) #7
  %27 = icmp eq i32 %26, 22
  br i1 %27, label %PKCS7_get_signer_info.exit.thread46, label %28

28:                                               ; preds = %24
  %29 = load ptr, ptr %12, align 8, !tbaa !3
  %30 = tail call i32 @OBJ_obj2nid(ptr noundef %29) #7
  %31 = icmp eq i32 %30, 24
  br i1 %31, label %PKCS7_get_signer_info.exit.thread46, label %PKCS7_get_signer_info.exit

PKCS7_get_signer_info.exit.thread46:              ; preds = %24, %28
  %32 = load ptr, ptr %8, align 8, !tbaa !14
  %33 = getelementptr inbounds nuw i8, ptr %32, i64 32
  %34 = load ptr, ptr %33, align 8, !tbaa !45
  br label %36

PKCS7_get_signer_info.exit:                       ; preds = %28
  %.pr41 = load ptr, ptr %8, align 8, !tbaa !14
  %35 = icmp eq ptr %.pr41, null
  br i1 %35, label %pkcs7_get0_certificates.exit, label %36

36:                                               ; preds = %PKCS7_get_signer_info.exit.thread46, %PKCS7_get_signer_info.exit
  %.0.i3450 = phi ptr [ %34, %PKCS7_get_signer_info.exit.thread46 ], [ null, %PKCS7_get_signer_info.exit ]
  %37 = load ptr, ptr %12, align 8, !tbaa !3
  %38 = tail call i32 @OBJ_obj2nid(ptr noundef %37) #7
  %39 = icmp eq i32 %38, 22
  br i1 %39, label %.sink.split.i37, label %40

40:                                               ; preds = %36
  %41 = load ptr, ptr %12, align 8, !tbaa !3
  %42 = tail call i32 @OBJ_obj2nid(ptr noundef %41) #7
  %43 = icmp eq i32 %42, 24
  br i1 %43, label %.sink.split.i37, label %pkcs7_get0_certificates.exit

.sink.split.i37:                                  ; preds = %40, %36
  %44 = load ptr, ptr %8, align 8, !tbaa !14
  %45 = getelementptr inbounds nuw i8, ptr %44, i64 16
  %46 = load ptr, ptr %45, align 8, !tbaa !81
  br label %pkcs7_get0_certificates.exit

pkcs7_get0_certificates.exit:                     ; preds = %pkcs7_get_recipient_info.exit, %PKCS7_get_signer_info.exit, %40, %.sink.split.i37
  %.0.i3445 = phi ptr [ null, %PKCS7_get_signer_info.exit ], [ %.0.i3450, %40 ], [ %.0.i3450, %.sink.split.i37 ], [ null, %pkcs7_get_recipient_info.exit ]
  %.0.i4044 = phi ptr [ %.0.i39, %PKCS7_get_signer_info.exit ], [ %.0.i39, %40 ], [ %.0.i39, %.sink.split.i37 ], [ null, %pkcs7_get_recipient_info.exit ]
  %.0.i36 = phi ptr [ null, %PKCS7_get_signer_info.exit ], [ null, %40 ], [ %46, %.sink.split.i37 ], [ null, %pkcs7_get_recipient_info.exit ]
  %47 = tail call i32 @OPENSSL_sk_num(ptr noundef %.0.i36) #7
  %48 = icmp sgt i32 %47, 0
  br i1 %48, label %.lr.ph, label %.preheader51

.preheader51:                                     ; preds = %.lr.ph, %pkcs7_get0_certificates.exit
  %49 = tail call i32 @OPENSSL_sk_num(ptr noundef %.0.i4044) #7
  %50 = icmp sgt i32 %49, 0
  br i1 %50, label %.lr.ph54, label %.preheader

.lr.ph:                                           ; preds = %pkcs7_get0_certificates.exit, %.lr.ph
  %.052 = phi i32 [ %53, %.lr.ph ], [ 0, %pkcs7_get0_certificates.exit ]
  %51 = tail call ptr @OPENSSL_sk_value(ptr noundef %.0.i36, i32 noundef %.052) #7
  %52 = tail call i32 @ossl_x509_set0_libctx(ptr noundef %51, ptr noundef %5, ptr noundef %7) #7
  %53 = add nuw nsw i32 %.052, 1
  %54 = tail call i32 @OPENSSL_sk_num(ptr noundef %.0.i36) #7
  %55 = icmp slt i32 %53, %54
  br i1 %55, label %.lr.ph, label %.preheader51, !llvm.loop !85

.preheader:                                       ; preds = %.lr.ph54, %.preheader51
  %56 = tail call i32 @OPENSSL_sk_num(ptr noundef %.0.i3445) #7
  %57 = icmp sgt i32 %56, 0
  br i1 %57, label %.lr.ph56, label %ossl_pkcs7_ctx_get0_propq.exit.thread

.lr.ph54:                                         ; preds = %.preheader51, %.lr.ph54
  %.153 = phi i32 [ %62, %.lr.ph54 ], [ 0, %.preheader51 ]
  %58 = tail call ptr @OPENSSL_sk_value(ptr noundef %.0.i4044, i32 noundef %.153) #7
  %59 = getelementptr inbounds nuw i8, ptr %58, i64 32
  %60 = load ptr, ptr %59, align 8, !tbaa !86
  %61 = tail call i32 @ossl_x509_set0_libctx(ptr noundef %60, ptr noundef %5, ptr noundef %7) #7
  %62 = add nuw nsw i32 %.153, 1
  %63 = tail call i32 @OPENSSL_sk_num(ptr noundef %.0.i4044) #7
  %64 = icmp slt i32 %62, %63
  br i1 %64, label %.lr.ph54, label %.preheader, !llvm.loop !89

.lr.ph56:                                         ; preds = %.preheader, %68
  %.255 = phi i32 [ %69, %68 ], [ 0, %.preheader ]
  %65 = tail call ptr @OPENSSL_sk_value(ptr noundef %.0.i3445, i32 noundef %.255) #7
  %.not = icmp eq ptr %65, null
  br i1 %.not, label %68, label %66

66:                                               ; preds = %.lr.ph56
  %67 = getelementptr inbounds nuw i8, ptr %65, i64 64
  store ptr %3, ptr %67, align 8, !tbaa !59
  br label %68

68:                                               ; preds = %66, %.lr.ph56
  %69 = add nuw nsw i32 %.255, 1
  %70 = tail call i32 @OPENSSL_sk_num(ptr noundef %.0.i3445) #7
  %71 = icmp slt i32 %69, %70
  br i1 %71, label %.lr.ph56, label %ossl_pkcs7_ctx_get0_propq.exit.thread, !llvm.loop !90

ossl_pkcs7_ctx_get0_propq.exit.thread:            ; preds = %68, %.preheader, %1, %4
  ret void
}